target datalayout = "e-m:e-p270:32:32-p271:32:32-p272:64:64-i64:64-i128:128-f80:128-n8:16:32:64-S128"
target triple = "x86_64-pc-linux-gnu"

%struct.expert_field = type { i32, i32 }

@hf_gsm_a_bssmap_spare_bits = internal global i32 0, align 4
@ei_gsm_a_bssmap_not_decoded_yet = internal global %struct.expert_field zeroinitializer, align 4
@hf_gsm_a_bssap_cell_id_list_seg_cell_id_disc = internal global i32 0, align 4

; Function Attrs: null_pointer_is_valid sspstrong uwtable
define internal zeroext i16 @be_cell_id_lst_seg_f_est_cells(ptr noundef %0, ptr noundef %1, ptr noundef %2, i32 noundef %3, i32 noundef %4, ptr noundef %5, i32 noundef %6) #1 {
  %8 = alloca ptr, align 8
  %9 = alloca ptr, align 8
  %10 = alloca ptr, align 8
  %11 = alloca i32, align 4
  %12 = alloca i32, align 4
  %13 = alloca ptr, align 8
  %14 = alloca i32, align 4
  %15 = alloca i32, align 4
  store ptr %0, ptr %8, align 8
  store ptr %1, ptr %9, align 8
  store ptr %2, ptr %10, align 8
  store i32 %3, ptr %11, align 4
  store i32 %4, ptr %12, align 4
  store ptr %5, ptr %13, align 8
  store i32 %6, ptr %14, align 4
  call void @llvm.lifetime.start.p0(i64 4, ptr %15) #5
  %16 = load i32, ptr %11, align 4
  store i32 %16, ptr %15, align 4
  %17 = load ptr, ptr %9, align 8
  %18 = load i32, ptr @hf_gsm_a_bssmap_spare_bits, align 4
  %19 = load ptr, ptr %8, align 8
  %20 = load i32, ptr %15, align 4
  %21 = shl i32 %20, 3
  %22 = call ptr @proto_tree_add_bits_item(ptr noundef %17, i32 noundef %18, ptr noundef %19, i32 noundef %21, i32 noundef 4, i32 noundef 0)
  %23 = load ptr, ptr %9, align 8
  %24 = load i32, ptr @hf_gsm_a_bssap_cell_id_list_seg_cell_id_disc, align 4
  %25 = load ptr, ptr %8, align 8
  %26 = load i32, ptr %15, align 4
  %27 = call ptr @proto_tree_add_item(ptr noundef %23, i32 noundef %24, ptr noundef %25, i32 noundef %26, i32 noundef 1, i32 noundef 0)
  %28 = load i32, ptr %15, align 4
  %29 = add i32 %28, 1
  store i32 %29, ptr %15, align 4
  %30 = load ptr, ptr %9, align 8
  %31 = load ptr, ptr %10, align 8
  %32 = load ptr, ptr %8, align 8
  %33 = load i32, ptr %15, align 4
  %34 = load i32, ptr %12, align 4
  %35 = sub i32 %34, 1
  %36 = call ptr @proto_tree_add_expert(ptr noundef %30, ptr noundef %31, ptr noundef @ei_gsm_a_bssmap_not_decoded_yet, ptr noundef %32, i32 noundef %33, i32 noundef %35)
  %37 = load i32, ptr %12, align 4
  %38 = trunc i32 %37 to i16
  call void @llvm.lifetime.end.p0(i64 4, ptr %15) #5
  ret i16 %38
}